; Function Attrs: nounwind sspstrong uwtable
define hidden void @FLAC__ogg_decoder_aspect_flush(ptr noundef %0) local_unnamed_addr #2 {
  %2 = getelementptr inbounds nuw i8, ptr %0, i64 16
  %3 = tail call i32 @ogg_stream_reset(ptr noundef nonnull %2) #15
  %4 = getelementptr inbounds nuw i8, ptr %0, i64 424
  %5 = tail call i32 @ogg_sync_reset(ptr noundef nonnull %4) #15
  %6 = getelementptr inbounds nuw i8, ptr %0, i64 476
  store i32 0, ptr %6, align 4, !tbaa !24
  %7 = getelementptr inbounds nuw i8, ptr %0, i64 488
  store i32 0, ptr %7, align 8, !tbaa !25
  %8 = getelementptr inbounds nuw i8, ptr %0, i64 480
  store i32 0, ptr %8, align 8, !tbaa !26
  ret void
}